Certificate:
    Data:
        Version: 3 (0x2)
        Serial Number: 2 (0x2)
    Signature Algorithm: sha256WithRSAEncryption
        Issuer: C=TR, ST=Antalya, L=Serik, O=ComixWall, OU=OpenVPN, CN=comixwall.org/emailAddress=sonertari@gmail.com
        Validity
            Not Before: Apr 27 12:29:11 2019 GMT
            Not After : Apr 26 12:29:11 2020 GMT
        Subject: C=TR, ST=Antalya, L=Serik, O=ComixWall, OU=OpenVPN Client, CN=comixwall.org/emailAddress=sonertari@gmail.com
        Subject Public Key Info:
            Public Key Algorithm: rsaEncryption
                Public-Key: (2048 bit)
                Modulus:
                    00:d0:41:d8:d3:4f:60:75:50:b0:63:53:6a:b9:21:
                    7a:fa:6c:54:3e:46:00:13:46:24:c8:65:48:b8:fc:
                    f3:0b:ae:f4:2f:36:c2:a1:f6:98:ad:25:fc:58:50:
                    a4:9f:f3:a7:b2:2b:0c:bb:9d:67:a1:97:f2:bc:8f:
                    d5:bc:ca:9a:ff:b8:36:1c:f6:c5:f7:44:8b:0a:3f:
                    a7:14:25:2a:b4:1a:95:42:f8:50:c3:58:b7:29:42:
                    ef:dd:63:b0:b1:4b:ce:56:a9:3a:45:3a:b8:bb:34:
                    48:4b:43:1a:5e:f1:08:24:82:a4:d6:a2:a2:86:f9:
                    25:69:fc:d5:3e:e7:12:8c:c1:90:5f:e0:6e:f1:4b:
                    da:7c:4e:89:cb:af:28:36:fa:fc:ca:9c:50:ab:89:
                    25:31:7f:fc:a5:cf:83:95:ca:3f:01:16:bb:0b:8f:
                    ef:9d:01:93:91:b7:d8:30:53:0f:49:fc:6e:9f:30:
                    41:e2:74:ef:a6:bc:ec:ec:57:b5:e0:a2:20:5d:a3:
                    92:3e:fb:f1:80:22:86:a2:69:62:f2:a4:9d:2d:8a:
                    79:2f:8d:4d:ca:4e:0a:31:de:9d:3b:40:37:5c:49:
                    67:e9:09:2b:47:20:55:8a:5e:ab:5c:13:5b:12:5f:
                    3a:04:1e:96:f0:01:50:1f:ed:9a:71:49:e6:e5:73:
                    46:75
                Exponent: 65537 (0x10001)
        X509v3 extensions:
            X509v3 Basic Constraints: 
                CA:FALSE
            X509v3 Subject Key Identifier: 
                87:61:08:48:A8:14:FA:30:57:6A:E3:6C:7A:3A:1B:E1:DC:51:66:C8
            X509v3 Authority Key Identifier: 
                keyid:06:58:9A:DB:F9:51:99:EA:2A:0F:B4:8F:31:45:8F:6F:AD:57:75:40
                DirName:/C=TR/ST=Antalya/L=Serik/O=ComixWall/OU=OpenVPN/CN=comixwall.org/emailAddress=sonertari@gmail.com
                serial:B6:14:C3:6A:A5:B4:7A:0D

    Signature Algorithm: sha256WithRSAEncryption
         e2:73:4f:d1:41:6c:0a:65:4e:34:6c:e3:64:d5:30:65:36:07:
         52:62:eb:0e:5f:a0:ee:f7:58:76:23:a7:93:9c:50:b1:d2:fa:
         93:1a:88:11:23:bd:39:77:6c:3b:4f:7d:30:56:77:d7:0a:cc:
         86:ad:fa:c2:37:57:92:58:31:c5:18:0a:7c:be:68:cd:bd:6a:
         6b:1d:de:9f:de:64:0f:78:be:72:e6:83:88:48:28:00:b6:09:
         cc:24:e0:b8:7d:7b:8e:8c:a3:6d:2e:96:e2:f3:72:d6:b1:b9:
         66:d2:38:93:8c:a7:0b:aa:5c:2a:ed:ee:c2:b3:ab:01:4e:48:
         5e:9b:16:cd:0e:4b:c2:a8:04:28:df:66:76:d9:62:da:35:05:
         36:c4:b8:90:be:b4:4c:99:ac:8d:96:4d:c0:1d:d3:19:f6:7b:
         8f:09:1c:bf:fa:f2:d7:a3:42:5b:43:2b:fe:7d:c8:64:82:b5:
         61:5f:cb:ae:2b:14:6c:1c:c9:e4:02:a5:9d:8c:41:57:8f:4f:
         2b:e0:4c:85:31:7e:51:53:dc:39:d1:fe:2e:4f:07:2d:09:68:
         34:3b:f0:25:21:56:fa:e9:9f:dc:26:81:ed:05:7c:35:95:46:
         97:78:9e:9d:92:dc:61:98:cc:5b:6f:f6:2f:21:7d:bd:d6:4a:
         ad:60:5f:41
-----BEGIN CERTIFICATE-----
MIIEnTCCA4WgAwIBAgIBAjANBgkqhkiG9w0BAQsFADCBkTELMAkGA1UEBhMCVFIx
EDAOBgNVBAgMB0FudGFseWExDjAMBgNVBAcMBVNlcmlrMRIwEAYDVQQKDAlDb21p
eFdhbGwxEDAOBgNVBAsMB09wZW5WUE4xFjAUBgNVBAMMDWNvbWl4d2FsbC5vcmcx
IjAgBgkqhkiG9w0BCQEWE3NvbmVydGFyaUBnbWFpbC5jb20wHhcNMTkwNDI3MTIy
OTExWhcNMjAwNDI2MTIyOTExWjCBmDELMAkGA1UEBhMCVFIxEDAOBgNVBAgMB0Fu
dGFseWExDjAMBgNVBAcMBVNlcmlrMRIwEAYDVQQKDAlDb21peFdhbGwxFzAVBgNV
BAsMDk9wZW5WUE4gQ2xpZW50MRYwFAYDVQQDDA1jb21peHdhbGwub3JnMSIwIAYJ
KoZIhvcNAQkBFhNzb25lcnRhcmlAZ21haWwuY29tMIIBIjANBgkqhkiG9w0BAQEF
AAOCAQ8AMIIBCgKCAQEA0EHY009gdVCwY1NquSF6+mxUPkYAE0YkyGVIuPzzC670
LzbCofaYrSX8WFCkn/OnsisMu51noZfyvI/VvMqa/7g2HPbF90SLCj+nFCUqtBqV
QvhQw1i3KULv3WOwsUvOVqk6RTq4uzRIS0MaXvEIJIKk1qKihvklafzVPucSjMGQ
X+Bu8UvafE6Jy68oNvr8ypxQq4klMX/8pc+Dlco/ARa7C4/vnQGTkbfYMFMPSfxu
nzBB4nTvprzs7Fe14KIgXaOSPvvxgCKGomli8qSdLYp5L41Nyk4KMd6dO0A3XEln
6QkrRyBVil6rXBNbEl86BB6W8AFQH+2acUnm5XNGdQIDAQABo4H2MIHzMAkGA1Ud
EwQCMAAwHQYDVR0OBBYEFIdhCEioFPowV2rjbHo6G+HcUWbIMIHGBgNVHSMEgb4w
gbuAFAZYmtv5UZnqKg+0jzFFj2+tV3VAoYGXpIGUMIGRMQswCQYDVQQGEwJUUjEQ
MA4GA1UECAwHQW50YWx5YTEOMAwGA1UEBwwFU2VyaWsxEjAQBgNVBAoMCUNvbWl4
V2FsbDEQMA4GA1UECwwHT3BlblZQTjEWMBQGA1UEAwwNY29taXh3YWxsLm9yZzEi
MCAGCSqGSIb3DQEJARYTc29uZXJ0YXJpQGdtYWlsLmNvbYIJALYUw2qltHoNMA0G
CSqGSIb3DQEBCwUAA4IBAQDic0/RQWwKZU40bONk1TBlNgdSYusOX6Du91h2I6eT
nFCx0vqTGogRI705d2w7T30wVnfXCsyGrfrCN1eSWDHFGAp8vmjNvWprHd6f3mQP
eL5y5oOISCgAtgnMJOC4fXuOjKNtLpbi83LWsblm0jiTjKcLqlwq7e7Cs6sBTkhe
mxbNDkvCqAQo32Z22WLaNQU2xLiQvrRMmayNlk3AHdMZ9nuPCRy/+vLXo0JbQyv+
fchkgrVhX8uuKxRsHMnkAqWdjEFXj08r4EyFMX5RU9w50f4uTwctCWg0O/AlIVb6
6Z/cJoHtBXw1lUaXeJ6dktxhmMxbb/YvIX291kqtYF9B
-----END CERTIFICATE-----
