Certificate:
    Data:
        Version: 3 (0x2)
        Serial Number: 5 (0x5)
        Signature Algorithm: sha256WithRSAEncryption
        Issuer: C=TR, ST=Antalya, L=Serik, O=ComixWall, OU=OpenVPN, CN=comixwall.org/emailAddress=sonertari@gmail.com
        Validity
            Not Before: Dec 14 12:04:28 2020 GMT
            Not After : Dec 14 12:04:28 2021 GMT
        Subject: C=TR, ST=Antalya, L=Serik, O=ComixWall, OU=OpenVPN Client, CN=comixwall.org/emailAddress=sonertari@gmail.com
        Subject Public Key Info:
            Public Key Algorithm: rsaEncryption
                RSA Public-Key: (2048 bit)
                Modulus:
                    00:ac:d1:22:cf:29:09:9b:7f:17:82:b6:d2:17:24:
                    43:b3:e3:6c:e6:9e:54:7d:1a:b8:ad:d6:45:21:ab:
                    b3:3c:ed:1b:83:4f:70:98:1a:11:e9:44:d3:c0:58:
                    cc:8b:85:2f:ae:f5:8d:47:bd:39:b3:db:2d:c7:33:
                    11:74:6e:b4:df:de:2e:f0:23:5c:11:9b:57:6e:05:
                    e0:d6:5e:22:52:01:9b:28:7c:7e:9d:38:1e:80:6a:
                    29:23:0c:70:2e:06:8f:63:b3:2b:f5:55:ee:e3:3a:
                    84:72:9c:a0:db:39:f1:4c:28:35:ab:0b:fc:55:3e:
                    d7:ec:aa:7b:8d:1c:00:9e:1b:b5:97:3d:ed:1b:a9:
                    ce:11:6e:a1:13:df:99:a7:ed:28:35:ed:e7:c9:b0:
                    ef:6f:8c:15:43:67:ee:8b:19:78:47:12:d7:43:0a:
                    73:70:17:5b:35:51:a1:4a:43:92:f7:2d:2d:f8:2b:
                    b3:49:8b:93:ae:ef:50:52:18:db:8b:05:15:1b:9e:
                    72:df:1b:62:22:7d:26:79:af:78:ad:da:97:fb:0c:
                    ce:ea:a6:32:0e:d1:79:a9:fe:47:3a:e2:f8:45:5f:
                    14:bb:55:00:36:47:e0:b5:b9:4e:8b:10:fc:52:11:
                    63:a3:eb:d4:90:2a:20:ef:d7:02:31:33:bb:a8:29:
                    d8:a7
                Exponent: 65537 (0x10001)
        X509v3 extensions:
            X509v3 Basic Constraints: 
                CA:FALSE
            X509v3 Subject Key Identifier: 
                7B:69:88:FE:9A:F5:5B:1A:5E:5A:C0:83:72:66:16:68:8D:31:DB:5B
            X509v3 Authority Key Identifier: 
                keyid:B0:38:C9:09:8A:3A:DE:93:A2:68:83:A1:85:5D:5B:B0:6B:30:E4:14
                DirName:/C=TR/ST=Antalya/L=Serik/O=ComixWall/OU=OpenVPN/CN=comixwall.org/emailAddress=sonertari@gmail.com
                serial:2E:E8:DD:AD:09:B3:B1:50:66:DA:5F:DA:C5:4A:85:66:07:80:D8:32

    Signature Algorithm: sha256WithRSAEncryption
         e3:e9:ef:12:e2:80:ae:c4:e8:3d:ec:22:87:0f:04:65:b6:b9:
         b2:6f:66:bd:f8:3e:2d:80:56:a1:90:b3:81:f4:71:14:17:0b:
         b8:6d:d5:35:f7:d0:43:10:90:cc:6c:12:1a:ca:1f:72:fd:3c:
         fe:dc:e8:71:a2:8e:4a:34:24:15:c8:f3:6a:39:b1:74:3a:0c:
         39:65:ad:b2:4b:89:03:44:77:d0:b7:5c:cf:7c:4c:84:37:cd:
         5c:f8:b3:9f:bc:15:43:4f:0a:93:e0:88:f7:75:f6:c1:08:9d:
         9b:19:f1:e5:2a:2e:5c:4e:df:64:5d:3e:5d:64:a9:6b:6e:f6:
         e3:59:24:03:32:1a:f4:06:35:12:a1:45:9a:43:37:14:2a:86:
         06:86:01:b5:10:c4:c4:d7:0d:aa:55:d1:b3:ec:52:ad:92:af:
         27:b1:30:ef:e5:1d:c1:ea:77:eb:5c:e8:9d:de:bd:5d:0b:55:
         1b:97:c1:8a:ae:39:d3:56:cc:fb:c9:b9:54:c5:0e:c4:98:fd:
         3c:19:9c:fd:9c:8e:6c:48:9b:5d:1c:83:b6:b0:5d:55:d6:aa:
         ff:9c:cd:93:5f:cd:73:11:5c:be:bb:80:c4:03:c0:97:2e:8c:
         d2:66:74:b0:b8:75:cc:78:c7:2c:83:ff:97:49:cc:d4:8f:6f:
         ce:f7:38:6d
-----BEGIN CERTIFICATE-----
MIIEqTCCA5GgAwIBAgIBBTANBgkqhkiG9w0BAQsFADCBkTELMAkGA1UEBhMCVFIx
EDAOBgNVBAgMB0FudGFseWExDjAMBgNVBAcMBVNlcmlrMRIwEAYDVQQKDAlDb21p
eFdhbGwxEDAOBgNVBAsMB09wZW5WUE4xFjAUBgNVBAMMDWNvbWl4d2FsbC5vcmcx
IjAgBgkqhkiG9w0BCQEWE3NvbmVydGFyaUBnbWFpbC5jb20wHhcNMjAxMjE0MTIw
NDI4WhcNMjExMjE0MTIwNDI4WjCBmDELMAkGA1UEBhMCVFIxEDAOBgNVBAgMB0Fu
dGFseWExDjAMBgNVBAcMBVNlcmlrMRIwEAYDVQQKDAlDb21peFdhbGwxFzAVBgNV
BAsMDk9wZW5WUE4gQ2xpZW50MRYwFAYDVQQDDA1jb21peHdhbGwub3JnMSIwIAYJ
KoZIhvcNAQkBFhNzb25lcnRhcmlAZ21haWwuY29tMIIBIjANBgkqhkiG9w0BAQEF
AAOCAQ8AMIIBCgKCAQEArNEizykJm38XgrbSFyRDs+Ns5p5UfRq4rdZFIauzPO0b
g09wmBoR6UTTwFjMi4UvrvWNR705s9stxzMRdG60394u8CNcEZtXbgXg1l4iUgGb
KHx+nTgegGopIwxwLgaPY7Mr9VXu4zqEcpyg2znxTCg1qwv8VT7X7Kp7jRwAnhu1
lz3tG6nOEW6hE9+Zp+0oNe3nybDvb4wVQ2fuixl4RxLXQwpzcBdbNVGhSkOS9y0t
+CuzSYuTru9QUhjbiwUVG55y3xtiIn0mea94rdqX+wzO6qYyDtF5qf5HOuL4RV8U
u1UANkfgtblOixD8UhFjo+vUkCog79cCMTO7qCnYpwIDAQABo4IBATCB/jAJBgNV
HRMEAjAAMB0GA1UdDgQWBBR7aYj+mvVbGl5awINyZhZojTHbWzCB0QYDVR0jBIHJ
MIHGgBSwOMkJijrek6Jog6GFXVuwazDkFKGBl6SBlDCBkTELMAkGA1UEBhMCVFIx
EDAOBgNVBAgMB0FudGFseWExDjAMBgNVBAcMBVNlcmlrMRIwEAYDVQQKDAlDb21p
eFdhbGwxEDAOBgNVBAsMB09wZW5WUE4xFjAUBgNVBAMMDWNvbWl4d2FsbC5vcmcx
IjAgBgkqhkiG9w0BCQEWE3NvbmVydGFyaUBnbWFpbC5jb22CFC7o3a0Js7FQZtpf
2sVKhWYHgNgyMA0GCSqGSIb3DQEBCwUAA4IBAQDj6e8S4oCuxOg97CKHDwRltrmy
b2a9+D4tgFahkLOB9HEUFwu4bdU199BDEJDMbBIayh9y/Tz+3Ohxoo5KNCQVyPNq
ObF0Ogw5Za2yS4kDRHfQt1zPfEyEN81c+LOfvBVDTwqT4Ij3dfbBCJ2bGfHlKi5c
Tt9kXT5dZKlrbvbjWSQDMhr0BjUSoUWaQzcUKoYGhgG1EMTE1w2qVdGz7FKtkq8n
sTDv5R3B6nfrXOid3r1dC1Ubl8GKrjnTVsz7yblUxQ7EmP08GZz9nI5sSJtdHIO2
sF1V1qr/nM2TX81zEVy+u4DEA8CXLozSZnSwuHXMeMcsg/+XSczUj2/O9zht
-----END CERTIFICATE-----
