Certificate:
    Data:
        Version: 3 (0x2)
        Serial Number: 2 (0x2)
        Signature Algorithm: sha256WithRSAEncryption
        Issuer: C=TR, ST=Antalya, L=Serik, O=ComixWall, OU=OpenVPN, CN=comixwall.org/emailAddress=sonertari@gmail.com
        Validity
            Not Before: May 24 19:01:42 2020 GMT
            Not After : May 24 19:01:42 2021 GMT
        Subject: C=TR, ST=Antalya, L=Serik, O=ComixWall, OU=OpenVPN Client, CN=comixwall.org/emailAddress=sonertari@gmail.com
        Subject Public Key Info:
            Public Key Algorithm: rsaEncryption
                RSA Public-Key: (2048 bit)
                Modulus:
                    00:b8:f1:ec:7e:47:71:f7:6c:ba:35:8d:6b:03:d1:
                    c9:79:29:9d:9a:4a:05:86:2e:69:70:3b:9c:29:23:
                    3c:30:3e:1f:0e:b6:a2:04:ed:8c:f9:a5:e3:ce:47:
                    8e:be:7d:46:95:36:81:99:b0:bd:24:c8:90:5d:56:
                    e6:cc:76:9f:c7:7c:30:7c:3b:70:25:fd:39:2f:42:
                    8c:3a:bc:a4:f1:03:21:7d:53:44:59:bf:72:ac:39:
                    6c:47:d3:31:26:d2:86:d8:62:db:8f:9d:4b:ba:4e:
                    ef:a1:d8:9b:ee:f7:bb:ac:57:33:23:29:6a:4d:ee:
                    fb:54:e2:38:4c:e9:87:3a:a2:44:aa:03:27:02:af:
                    75:fe:5e:68:01:b8:4a:d1:ea:ec:07:3f:62:b0:f7:
                    da:d4:e5:d9:ca:00:d8:6e:d1:a0:18:95:77:ee:83:
                    e1:b5:e9:08:9a:f5:d4:f5:40:b7:d4:b6:7a:92:2b:
                    92:41:f4:ac:28:17:6e:a6:75:28:82:ef:fd:a9:f0:
                    c5:9c:c0:29:06:0e:44:32:1d:c5:4c:13:b3:65:e4:
                    1f:d6:e3:74:b5:7e:c5:35:de:70:fe:c1:80:0c:75:
                    86:f9:07:c8:b1:43:19:11:b8:d1:fc:a4:d7:44:d3:
                    5a:cb:fb:db:ec:0e:e1:e7:39:e5:4c:87:fe:6c:1d:
                    9a:55
                Exponent: 65537 (0x10001)
        X509v3 extensions:
            X509v3 Basic Constraints: 
                CA:FALSE
            X509v3 Subject Key Identifier: 
                B8:84:D8:69:49:9E:BC:05:A1:77:65:11:3B:2B:1C:51:E1:3E:0D:FE
            X509v3 Authority Key Identifier: 
                keyid:70:A8:97:E1:3A:83:D6:41:69:14:B2:DF:FB:42:76:BF:42:81:6C:16
                DirName:/C=TR/ST=Antalya/L=Serik/O=ComixWall/OU=OpenVPN/CN=comixwall.org/emailAddress=sonertari@gmail.com
                serial:38:39:0C:DA:CB:C8:75:1E:51:62:DE:D7:02:81:E4:6A:FA:20:2B:FA

    Signature Algorithm: sha256WithRSAEncryption
         63:e5:ac:28:34:a3:01:59:98:80:a9:3c:d3:e3:48:ab:88:e3:
         31:a3:8b:81:04:cd:ad:4d:0e:dd:c3:60:5e:d1:a7:15:01:84:
         2d:2f:35:74:5c:01:81:74:60:c8:85:9c:40:08:aa:f7:5f:49:
         cb:e6:68:af:09:16:f1:dd:1f:7e:96:c9:47:2b:ba:ea:fa:f9:
         fe:ff:9e:ae:9e:f8:b8:79:9f:eb:e9:6f:4f:bd:16:65:47:87:
         c9:91:7a:f5:7a:ef:6f:fa:a8:44:c9:f5:1f:49:5f:de:29:43:
         14:f2:ea:09:f6:ba:30:2e:5c:82:da:c1:af:5a:ab:e1:0f:fa:
         94:7e:6f:55:e9:7e:92:a0:66:f5:77:42:fa:30:e8:27:ba:a3:
         61:29:a3:2a:29:19:5e:7a:f8:96:ca:74:c7:74:49:3d:99:51:
         64:89:39:0c:82:dc:09:73:5b:48:fe:63:6a:26:79:20:0e:93:
         2a:1c:aa:8f:2c:37:f8:b7:f9:3d:46:7a:52:75:36:f6:55:7f:
         28:ad:f8:55:0a:7a:32:f6:a3:d4:c8:cd:51:fb:3c:78:2d:54:
         6f:60:a5:ad:17:06:34:ac:2e:3d:62:e3:5d:e9:fb:1c:e8:0a:
         c5:e4:1c:8f:eb:1c:e1:c1:c9:32:47:2a:09:ef:4c:f5:61:6d:
         22:91:a3:76
-----BEGIN CERTIFICATE-----
MIIEqTCCA5GgAwIBAgIBAjANBgkqhkiG9w0BAQsFADCBkTELMAkGA1UEBhMCVFIx
EDAOBgNVBAgMB0FudGFseWExDjAMBgNVBAcMBVNlcmlrMRIwEAYDVQQKDAlDb21p
eFdhbGwxEDAOBgNVBAsMB09wZW5WUE4xFjAUBgNVBAMMDWNvbWl4d2FsbC5vcmcx
IjAgBgkqhkiG9w0BCQEWE3NvbmVydGFyaUBnbWFpbC5jb20wHhcNMjAwNTI0MTkw
MTQyWhcNMjEwNTI0MTkwMTQyWjCBmDELMAkGA1UEBhMCVFIxEDAOBgNVBAgMB0Fu
dGFseWExDjAMBgNVBAcMBVNlcmlrMRIwEAYDVQQKDAlDb21peFdhbGwxFzAVBgNV
BAsMDk9wZW5WUE4gQ2xpZW50MRYwFAYDVQQDDA1jb21peHdhbGwub3JnMSIwIAYJ
KoZIhvcNAQkBFhNzb25lcnRhcmlAZ21haWwuY29tMIIBIjANBgkqhkiG9w0BAQEF
AAOCAQ8AMIIBCgKCAQEAuPHsfkdx92y6NY1rA9HJeSmdmkoFhi5pcDucKSM8MD4f
DraiBO2M+aXjzkeOvn1GlTaBmbC9JMiQXVbmzHafx3wwfDtwJf05L0KMOryk8QMh
fVNEWb9yrDlsR9MxJtKG2GLbj51Luk7vodib7ve7rFczIylqTe77VOI4TOmHOqJE
qgMnAq91/l5oAbhK0ersBz9isPfa1OXZygDYbtGgGJV37oPhtekImvXU9UC31LZ6
kiuSQfSsKBdupnUogu/9qfDFnMApBg5EMh3FTBOzZeQf1uN0tX7FNd5w/sGADHWG
+QfIsUMZEbjR/KTXRNNay/vb7A7h5znlTIf+bB2aVQIDAQABo4IBATCB/jAJBgNV
HRMEAjAAMB0GA1UdDgQWBBS4hNhpSZ68BaF3ZRE7KxxR4T4N/jCB0QYDVR0jBIHJ
MIHGgBRwqJfhOoPWQWkUst/7Qna/QoFsFqGBl6SBlDCBkTELMAkGA1UEBhMCVFIx
EDAOBgNVBAgMB0FudGFseWExDjAMBgNVBAcMBVNlcmlrMRIwEAYDVQQKDAlDb21p
eFdhbGwxEDAOBgNVBAsMB09wZW5WUE4xFjAUBgNVBAMMDWNvbWl4d2FsbC5vcmcx
IjAgBgkqhkiG9w0BCQEWE3NvbmVydGFyaUBnbWFpbC5jb22CFDg5DNrLyHUeUWLe
1wKB5Gr6ICv6MA0GCSqGSIb3DQEBCwUAA4IBAQBj5awoNKMBWZiAqTzT40iriOMx
o4uBBM2tTQ7dw2Be0acVAYQtLzV0XAGBdGDIhZxACKr3X0nL5mivCRbx3R9+lslH
K7rq+vn+/56unvi4eZ/r6W9PvRZlR4fJkXr1eu9v+qhEyfUfSV/eKUMU8uoJ9row
LlyC2sGvWqvhD/qUfm9V6X6SoGb1d0L6MOgnuqNhKaMqKRleeviWynTHdEk9mVFk
iTkMgtwJc1tI/mNqJnkgDpMqHKqPLDf4t/k9RnpSdTb2VX8orfhVCnoy9qPUyM1R
+zx4LVRvYKWtFwY0rC49YuNd6fsc6ArF5ByP6xzhwckyRyoJ70z1YW0ikaN2
-----END CERTIFICATE-----
