Certificate:
    Data:
        Version: 3 (0x2)
        Serial Number: 2 (0x2)
        Signature Algorithm: sha256WithRSAEncryption
        Issuer: C=TR, ST=Antalya, L=Serik, O=ComixWall, OU=OpenVPN, CN=comixwall.org/emailAddress=sonertari@gmail.com
        Validity
            Not Before: Dec  1 11:11:44 2019 GMT
            Not After : Nov 30 11:11:44 2020 GMT
        Subject: C=TR, ST=Antalya, L=Serik, O=ComixWall, OU=OpenVPN Client, CN=comixwall.org/emailAddress=sonertari@gmail.com
        Subject Public Key Info:
            Public Key Algorithm: rsaEncryption
                RSA Public-Key: (2048 bit)
                Modulus:
                    00:9c:c9:de:f5:26:34:f5:cb:5a:4b:23:c3:c0:04:
                    78:0f:cb:d9:d5:c0:01:6b:96:b2:e7:45:c2:b5:42:
                    0f:28:c9:cc:ff:22:3f:43:5d:3e:9a:7d:49:45:72:
                    55:c4:2c:df:cb:8a:2b:4c:c5:58:18:68:19:3a:18:
                    77:c3:8a:37:70:d1:48:5f:ce:00:c7:64:38:fb:88:
                    4a:c0:53:6b:6d:f9:18:02:e6:fe:3f:69:7c:db:95:
                    65:62:c0:0c:3d:f1:4a:55:5d:72:25:f8:4b:08:f0:
                    fb:c1:04:a0:88:91:27:a6:0f:96:4a:d5:57:1a:2a:
                    7a:ed:ba:09:98:d0:47:a7:a1:73:df:e0:29:8d:dc:
                    f5:19:d4:6c:9e:b2:23:6c:8e:a1:c8:64:20:be:95:
                    2c:ac:e7:97:24:e0:47:25:2b:0a:4e:dd:83:40:b1:
                    a0:cb:3f:c9:f7:e5:c7:21:dc:84:83:76:bd:48:41:
                    7b:68:41:67:18:44:bd:de:5d:a9:70:32:17:3f:b9:
                    15:9e:52:04:a7:94:31:35:bd:81:c5:2f:13:32:d9:
                    29:e0:45:be:16:49:58:b2:fe:2a:9f:3f:d5:6b:6c:
                    cb:79:a6:17:2b:0c:ca:95:bb:3f:a7:02:72:8b:fb:
                    9d:80:a3:ee:33:9e:00:e4:55:48:49:a3:03:53:4a:
                    73:5b
                Exponent: 65537 (0x10001)
        X509v3 extensions:
            X509v3 Basic Constraints: 
                CA:FALSE
            X509v3 Subject Key Identifier: 
                6B:12:E0:09:69:2C:84:FF:84:6B:77:E9:BC:56:D9:9A:0D:D8:A3:BA
            X509v3 Authority Key Identifier: 
                keyid:5E:9B:18:10:29:1D:3A:90:F3:55:48:C1:D7:D6:DA:77:FE:D6:26:E1
                DirName:/C=TR/ST=Antalya/L=Serik/O=ComixWall/OU=OpenVPN/CN=comixwall.org/emailAddress=sonertari@gmail.com
                serial:0E:11:1A:37:76:48:C5:9A:D0:DF:47:6E:02:A1:99:E8:24:FA:88:1A

    Signature Algorithm: sha256WithRSAEncryption
         6e:44:19:90:e9:1e:30:61:2b:d5:50:a6:34:68:10:d9:2e:85:
         50:12:42:a4:54:3d:e0:09:2a:9f:14:38:77:1e:b8:d5:7d:1b:
         64:a9:58:2e:67:35:92:2f:33:06:aa:01:ef:c4:46:8b:e2:5e:
         94:62:2e:9c:48:42:3c:17:c6:53:35:84:98:c1:42:b3:bf:62:
         7b:7f:a4:85:1d:65:da:e0:27:6b:ba:c0:4e:0b:8a:15:aa:2e:
         a2:6d:ba:bc:ff:56:8a:fa:f9:e5:ef:00:ef:73:b6:36:94:8e:
         68:0b:75:36:55:28:dc:13:f3:e5:22:04:d3:00:6f:30:0b:45:
         4c:17:da:59:de:9d:2d:ef:92:7e:0e:cd:7a:97:66:da:03:42:
         5e:35:79:e1:05:f1:0a:c9:76:28:98:ca:29:c8:b4:35:83:d9:
         6b:04:4d:47:a1:bd:50:5e:6e:b1:56:77:58:80:5e:ef:8a:1b:
         36:38:6b:e1:63:e7:ab:ff:94:21:09:aa:de:57:3a:98:97:2d:
         c4:42:6c:aa:ed:d0:f4:37:7a:7d:7d:ba:13:92:e7:28:8e:6b:
         7c:9b:13:a1:00:00:11:33:e7:a8:7c:e0:74:d4:a4:c9:9e:0b:
         b2:9c:b1:6a:4b:b2:81:34:b1:1a:e5:02:15:96:65:86:b6:7f:
         e6:e1:d2:e8
-----BEGIN CERTIFICATE-----
MIIEqTCCA5GgAwIBAgIBAjANBgkqhkiG9w0BAQsFADCBkTELMAkGA1UEBhMCVFIx
EDAOBgNVBAgMB0FudGFseWExDjAMBgNVBAcMBVNlcmlrMRIwEAYDVQQKDAlDb21p
eFdhbGwxEDAOBgNVBAsMB09wZW5WUE4xFjAUBgNVBAMMDWNvbWl4d2FsbC5vcmcx
IjAgBgkqhkiG9w0BCQEWE3NvbmVydGFyaUBnbWFpbC5jb20wHhcNMTkxMjAxMTEx
MTQ0WhcNMjAxMTMwMTExMTQ0WjCBmDELMAkGA1UEBhMCVFIxEDAOBgNVBAgMB0Fu
dGFseWExDjAMBgNVBAcMBVNlcmlrMRIwEAYDVQQKDAlDb21peFdhbGwxFzAVBgNV
BAsMDk9wZW5WUE4gQ2xpZW50MRYwFAYDVQQDDA1jb21peHdhbGwub3JnMSIwIAYJ
KoZIhvcNAQkBFhNzb25lcnRhcmlAZ21haWwuY29tMIIBIjANBgkqhkiG9w0BAQEF
AAOCAQ8AMIIBCgKCAQEAnMne9SY09ctaSyPDwAR4D8vZ1cABa5ay50XCtUIPKMnM
/yI/Q10+mn1JRXJVxCzfy4orTMVYGGgZOhh3w4o3cNFIX84Ax2Q4+4hKwFNrbfkY
Aub+P2l825VlYsAMPfFKVV1yJfhLCPD7wQSgiJEnpg+WStVXGip67boJmNBHp6Fz
3+Apjdz1GdRsnrIjbI6hyGQgvpUsrOeXJOBHJSsKTt2DQLGgyz/J9+XHIdyEg3a9
SEF7aEFnGES93l2pcDIXP7kVnlIEp5QxNb2BxS8TMtkp4EW+FklYsv4qnz/Va2zL
eaYXKwzKlbs/pwJyi/udgKPuM54A5FVISaMDU0pzWwIDAQABo4IBATCB/jAJBgNV
HRMEAjAAMB0GA1UdDgQWBBRrEuAJaSyE/4Rrd+m8VtmaDdijujCB0QYDVR0jBIHJ
MIHGgBRemxgQKR06kPNVSMHX1tp3/tYm4aGBl6SBlDCBkTELMAkGA1UEBhMCVFIx
EDAOBgNVBAgMB0FudGFseWExDjAMBgNVBAcMBVNlcmlrMRIwEAYDVQQKDAlDb21p
eFdhbGwxEDAOBgNVBAsMB09wZW5WUE4xFjAUBgNVBAMMDWNvbWl4d2FsbC5vcmcx
IjAgBgkqhkiG9w0BCQEWE3NvbmVydGFyaUBnbWFpbC5jb22CFA4RGjd2SMWa0N9H
bgKhmegk+ogaMA0GCSqGSIb3DQEBCwUAA4IBAQBuRBmQ6R4wYSvVUKY0aBDZLoVQ
EkKkVD3gCSqfFDh3HrjVfRtkqVguZzWSLzMGqgHvxEaL4l6UYi6cSEI8F8ZTNYSY
wUKzv2J7f6SFHWXa4CdrusBOC4oVqi6ibbq8/1aK+vnl7wDvc7Y2lI5oC3U2VSjc
E/PlIgTTAG8wC0VMF9pZ3p0t75J+Ds16l2baA0JeNXnhBfEKyXYomMopyLQ1g9lr
BE1Hob1QXm6xVndYgF7vihs2OGvhY+er/5QhCareVzqYly3EQmyq7dD0N3p9fboT
kucojmt8mxOhAAARM+eofOB01KTJnguynLFqS7KBNLEa5QIVlmWGtn/m4dLo
-----END CERTIFICATE-----
