Certificate:
    Data:
        Version: 3 (0x2)
        Serial Number: 4 (0x4)
        Signature Algorithm: sha256WithRSAEncryption
        Issuer: C=TR, ST=Antalya, L=Serik, O=ComixWall, OU=OpenVPN, CN=comixwall.org/emailAddress=sonertari@gmail.com
        Validity
            Not Before: Dec 14 12:04:28 2020 GMT
            Not After : Dec 14 12:04:28 2021 GMT
        Subject: C=TR, ST=Antalya, L=Serik, O=ComixWall, OU=OpenVPN Server, CN=comixwall.org/emailAddress=sonertari@gmail.com
        Subject Public Key Info:
            Public Key Algorithm: rsaEncryption
                RSA Public-Key: (2048 bit)
                Modulus:
                    00:b9:38:83:9a:1c:38:25:a1:d9:a7:47:5e:42:67:
                    53:26:04:dc:f9:d1:e4:7f:1a:21:ac:f0:96:91:bf:
                    89:80:6d:30:b1:f4:1b:69:6f:7c:71:ed:e5:b4:d1:
                    9c:58:6a:90:bc:e3:79:26:78:55:83:41:e7:b6:52:
                    1d:58:72:ea:84:03:30:95:e2:0c:81:55:db:89:e0:
                    f8:d8:ae:60:6b:6e:69:a8:a1:ec:a9:cf:a8:72:7d:
                    4d:9b:2b:5b:97:c4:1c:f6:ba:10:86:3c:23:3e:1b:
                    0e:b0:aa:57:92:9b:84:b3:0f:6f:34:09:da:17:d8:
                    71:a5:3c:93:9a:1f:c2:36:1c:3d:d9:ff:e8:45:70:
                    91:34:1c:d7:41:f8:75:cb:3d:f1:b0:1c:f4:35:d7:
                    29:53:91:4a:64:14:74:84:c6:2f:d2:9c:e0:8d:98:
                    ad:ac:e2:95:4b:67:1b:be:e1:8a:6b:7c:41:b7:42:
                    73:f9:34:f3:3b:70:4b:23:2e:8a:49:e7:66:81:32:
                    d8:99:6b:f9:3c:c1:25:b6:75:0c:03:8b:61:6a:c5:
                    2e:ab:09:ba:ab:91:a6:19:c3:01:38:6a:a8:cc:56:
                    2b:9f:92:9e:85:6a:ef:20:ae:8f:31:4b:bc:79:43:
                    eb:75:da:f9:85:cb:b1:ca:f7:2c:e0:72:ad:d0:e1:
                    47:69
                Exponent: 65537 (0x10001)
        X509v3 extensions:
            X509v3 Basic Constraints: 
                CA:FALSE
            Netscape Cert Type: 
                SSL Server
            Netscape Comment: 
                OpenSSL Server Certificate
            X509v3 Subject Key Identifier: 
                31:E6:B2:91:3A:D4:49:59:5D:B8:B2:25:48:C7:49:97:6F:36:9E:79
            X509v3 Authority Key Identifier: 
                keyid:B0:38:C9:09:8A:3A:DE:93:A2:68:83:A1:85:5D:5B:B0:6B:30:E4:14
                DirName:/C=TR/ST=Antalya/L=Serik/O=ComixWall/OU=OpenVPN/CN=comixwall.org/emailAddress=sonertari@gmail.com
                serial:2E:E8:DD:AD:09:B3:B1:50:66:DA:5F:DA:C5:4A:85:66:07:80:D8:32

            X509v3 Extended Key Usage: 
                TLS Web Server Authentication
            X509v3 Key Usage: 
                Digital Signature, Key Encipherment
    Signature Algorithm: sha256WithRSAEncryption
         ae:7e:e4:8b:94:e0:56:ce:b6:57:5a:6b:f1:75:63:cf:b6:03:
         36:a5:3c:1c:08:f6:07:85:3e:3f:5d:c5:88:21:33:f2:dc:4d:
         5c:1b:93:aa:1c:91:ef:cd:96:ca:5a:b6:33:51:81:69:d9:20:
         20:0b:6f:ee:00:40:f8:8a:13:0a:36:3f:65:03:37:a1:7e:49:
         68:54:2c:3e:a2:71:b0:ce:96:ce:ea:69:94:55:9e:c8:9e:1e:
         8d:a2:e0:15:44:e0:ee:db:aa:aa:39:f7:f2:5d:e2:86:ec:9a:
         9e:2b:f1:a2:aa:3a:8f:4e:22:0b:9b:5a:5f:24:d4:7d:6d:58:
         d0:c9:83:cf:71:3a:b0:83:e6:e4:e8:e9:04:44:56:78:e1:ab:
         9d:b0:7a:c7:95:92:f1:4a:89:66:5e:3d:49:fe:81:b4:5b:d7:
         df:8a:ea:77:63:80:93:17:be:58:5a:f2:67:80:7a:64:9f:8f:
         a9:70:9f:bd:39:dd:0b:14:c2:4e:79:35:2e:fe:6e:e8:e4:a7:
         94:11:70:45:6b:a9:d5:ec:3e:bd:2e:ff:93:70:46:b6:ac:6d:
         01:61:c9:3f:23:d5:fb:05:93:10:53:dc:d5:91:9d:a8:2c:c0:
         dd:c3:a3:27:f3:2f:32:0b:04:8a:38:7e:5f:cc:91:73:8e:33:
         ea:f0:9a:a5
-----BEGIN CERTIFICATE-----
MIIFCjCCA/KgAwIBAgIBBDANBgkqhkiG9w0BAQsFADCBkTELMAkGA1UEBhMCVFIx
EDAOBgNVBAgMB0FudGFseWExDjAMBgNVBAcMBVNlcmlrMRIwEAYDVQQKDAlDb21p
eFdhbGwxEDAOBgNVBAsMB09wZW5WUE4xFjAUBgNVBAMMDWNvbWl4d2FsbC5vcmcx
IjAgBgkqhkiG9w0BCQEWE3NvbmVydGFyaUBnbWFpbC5jb20wHhcNMjAxMjE0MTIw
NDI4WhcNMjExMjE0MTIwNDI4WjCBmDELMAkGA1UEBhMCVFIxEDAOBgNVBAgMB0Fu
dGFseWExDjAMBgNVBAcMBVNlcmlrMRIwEAYDVQQKDAlDb21peFdhbGwxFzAVBgNV
BAsMDk9wZW5WUE4gU2VydmVyMRYwFAYDVQQDDA1jb21peHdhbGwub3JnMSIwIAYJ
KoZIhvcNAQkBFhNzb25lcnRhcmlAZ21haWwuY29tMIIBIjANBgkqhkiG9w0BAQEF
AAOCAQ8AMIIBCgKCAQEAuTiDmhw4JaHZp0deQmdTJgTc+dHkfxohrPCWkb+JgG0w
sfQbaW98ce3ltNGcWGqQvON5JnhVg0HntlIdWHLqhAMwleIMgVXbieD42K5ga25p
qKHsqc+ocn1Nmytbl8Qc9roQhjwjPhsOsKpXkpuEsw9vNAnaF9hxpTyTmh/CNhw9
2f/oRXCRNBzXQfh1yz3xsBz0NdcpU5FKZBR0hMYv0pzgjZitrOKVS2cbvuGKa3xB
t0Jz+TTzO3BLIy6KSedmgTLYmWv5PMEltnUMA4thasUuqwm6q5GmGcMBOGqozFYr
n5KehWrvIK6PMUu8eUPrddr5hcuxyvcs4HKt0OFHaQIDAQABo4IBYjCCAV4wCQYD
VR0TBAIwADARBglghkgBhvhCAQEEBAMCBkAwKQYJYIZIAYb4QgENBBwWGk9wZW5T
U0wgU2VydmVyIENlcnRpZmljYXRlMB0GA1UdDgQWBBQx5rKROtRJWV24siVIx0mX
bzaeeTCB0QYDVR0jBIHJMIHGgBSwOMkJijrek6Jog6GFXVuwazDkFKGBl6SBlDCB
kTELMAkGA1UEBhMCVFIxEDAOBgNVBAgMB0FudGFseWExDjAMBgNVBAcMBVNlcmlr
MRIwEAYDVQQKDAlDb21peFdhbGwxEDAOBgNVBAsMB09wZW5WUE4xFjAUBgNVBAMM
DWNvbWl4d2FsbC5vcmcxIjAgBgkqhkiG9w0BCQEWE3NvbmVydGFyaUBnbWFpbC5j
b22CFC7o3a0Js7FQZtpf2sVKhWYHgNgyMBMGA1UdJQQMMAoGCCsGAQUFBwMBMAsG
A1UdDwQEAwIFoDANBgkqhkiG9w0BAQsFAAOCAQEArn7ki5TgVs62V1pr8XVjz7YD
NqU8HAj2B4U+P13FiCEz8txNXBuTqhyR782Wylq2M1GBadkgIAtv7gBA+IoTCjY/
ZQM3oX5JaFQsPqJxsM6WzupplFWeyJ4ejaLgFUTg7tuqqjn38l3ihuyanivxoqo6
j04iC5taXyTUfW1Y0MmDz3E6sIPm5OjpBERWeOGrnbB6x5WS8UqJZl49Sf6BtFvX
34rqd2OAkxe+WFryZ4B6ZJ+PqXCfvTndCxTCTnk1Lv5u6OSnlBFwRWup1ew+vS7/
k3BGtqxtAWHJPyPV+wWTEFPc1ZGdqCzA3cOjJ/MvMgsEijh+X8yRc44z6vCapQ==
-----END CERTIFICATE-----
