Certificate:
    Data:
        Version: 3 (0x2)
        Serial Number: 1 (0x1)
        Signature Algorithm: sha256WithRSAEncryption
        Issuer: C=TR, ST=Antalya, L=Serik, O=ComixWall, OU=OpenVPN, CN=comixwall.org/emailAddress=sonertari@gmail.com
        Validity
            Not Before: May 24 19:01:42 2020 GMT
            Not After : May 24 19:01:42 2021 GMT
        Subject: C=TR, ST=Antalya, L=Serik, O=ComixWall, OU=OpenVPN Server, CN=comixwall.org/emailAddress=sonertari@gmail.com
        Subject Public Key Info:
            Public Key Algorithm: rsaEncryption
                RSA Public-Key: (2048 bit)
                Modulus:
                    00:c9:c2:26:64:50:61:1e:62:d0:49:9f:e3:68:26:
                    ae:2e:d4:7d:bf:47:6c:2b:41:6a:be:f2:71:31:5d:
                    d5:a0:ed:c3:7e:02:6e:82:ac:a5:8a:06:7d:34:5d:
                    b8:27:99:87:d9:e4:41:18:dd:67:4b:89:cc:ec:a8:
                    05:fc:11:b9:ca:e6:c5:f4:a9:94:b7:78:01:f3:a8:
                    5d:46:4d:aa:f9:8a:56:37:56:7d:00:6c:9d:18:6a:
                    74:b3:b2:0b:3a:69:c8:6e:94:b4:e8:03:83:00:49:
                    77:56:5c:c4:29:3a:0d:39:a7:bb:af:59:ea:be:25:
                    1c:20:68:6e:4f:db:61:69:2a:f2:af:06:b3:3e:3e:
                    e2:51:8b:91:d1:e7:76:2a:ec:73:7f:3d:16:f1:3b:
                    ca:32:0b:26:cb:3b:0d:c8:20:72:78:95:dc:89:27:
                    1d:85:9e:3b:11:ff:59:50:13:33:41:4e:35:87:4d:
                    f6:cd:87:c0:59:4b:ca:a5:1c:ee:4f:d3:19:b3:14:
                    2c:c4:c2:4f:8f:87:e9:01:83:7d:ae:0f:36:6f:7f:
                    4a:5d:63:da:63:d3:16:e4:fb:b8:18:9e:b2:3f:16:
                    88:e1:20:4a:d4:06:1a:49:f6:c4:9c:51:f1:11:29:
                    b6:53:9d:8a:17:c7:13:37:3c:8c:e1:b5:86:c0:cc:
                    b6:e9
                Exponent: 65537 (0x10001)
        X509v3 extensions:
            X509v3 Basic Constraints: 
                CA:FALSE
            Netscape Cert Type: 
                SSL Server
            Netscape Comment: 
                OpenSSL Server Certificate
            X509v3 Subject Key Identifier: 
                AD:5B:51:77:77:88:44:35:68:E8:48:7C:0D:FE:A1:7C:F1:40:3C:E8
            X509v3 Authority Key Identifier: 
                keyid:70:A8:97:E1:3A:83:D6:41:69:14:B2:DF:FB:42:76:BF:42:81:6C:16
                DirName:/C=TR/ST=Antalya/L=Serik/O=ComixWall/OU=OpenVPN/CN=comixwall.org/emailAddress=sonertari@gmail.com
                serial:38:39:0C:DA:CB:C8:75:1E:51:62:DE:D7:02:81:E4:6A:FA:20:2B:FA

            X509v3 Extended Key Usage: 
                TLS Web Server Authentication
            X509v3 Key Usage: 
                Digital Signature, Key Encipherment
    Signature Algorithm: sha256WithRSAEncryption
         1e:0d:2e:dd:ed:88:3a:17:84:9a:91:65:59:24:92:7d:3e:d3:
         36:44:1e:d2:c0:ea:42:27:94:e7:01:86:8e:6e:27:60:d3:83:
         d2:e1:01:35:70:d8:64:51:64:b1:be:ad:59:ab:1a:39:fe:a8:
         c1:ff:bf:b3:82:81:01:11:53:9b:ab:69:0e:59:e0:40:9f:ef:
         32:5f:e6:0d:b5:2d:bc:f3:a8:77:24:75:66:53:50:b7:af:e4:
         55:e8:5f:88:2b:ef:eb:5d:4b:cd:37:95:b9:e3:5e:0f:02:14:
         4c:ec:ce:d1:80:71:29:eb:20:db:4a:f5:6e:55:57:bc:2c:26:
         87:f5:39:e3:3d:d5:4f:82:af:2d:38:39:38:ff:2d:6c:c7:c3:
         8d:63:1e:31:2d:9e:72:76:66:1e:2a:3f:bd:86:da:11:58:dc:
         11:8c:2b:11:c0:8f:c0:9f:6e:fa:8f:61:5f:7a:ac:64:a1:fe:
         d1:ff:0e:6c:1b:2b:44:c5:8d:44:1d:cc:13:32:33:4b:31:96:
         35:71:60:67:3d:3a:3f:ae:e2:b0:45:15:25:52:48:12:ae:6d:
         e4:1b:a7:6b:2f:66:de:1c:4e:a0:3c:ea:63:39:2b:da:d1:c7:
         20:64:00:d5:58:6d:22:d7:d4:9a:a5:c3:04:8c:6b:8f:92:98:
         85:6b:3f:e7
-----BEGIN CERTIFICATE-----
MIIFCjCCA/KgAwIBAgIBATANBgkqhkiG9w0BAQsFADCBkTELMAkGA1UEBhMCVFIx
EDAOBgNVBAgMB0FudGFseWExDjAMBgNVBAcMBVNlcmlrMRIwEAYDVQQKDAlDb21p
eFdhbGwxEDAOBgNVBAsMB09wZW5WUE4xFjAUBgNVBAMMDWNvbWl4d2FsbC5vcmcx
IjAgBgkqhkiG9w0BCQEWE3NvbmVydGFyaUBnbWFpbC5jb20wHhcNMjAwNTI0MTkw
MTQyWhcNMjEwNTI0MTkwMTQyWjCBmDELMAkGA1UEBhMCVFIxEDAOBgNVBAgMB0Fu
dGFseWExDjAMBgNVBAcMBVNlcmlrMRIwEAYDVQQKDAlDb21peFdhbGwxFzAVBgNV
BAsMDk9wZW5WUE4gU2VydmVyMRYwFAYDVQQDDA1jb21peHdhbGwub3JnMSIwIAYJ
KoZIhvcNAQkBFhNzb25lcnRhcmlAZ21haWwuY29tMIIBIjANBgkqhkiG9w0BAQEF
AAOCAQ8AMIIBCgKCAQEAycImZFBhHmLQSZ/jaCauLtR9v0dsK0FqvvJxMV3VoO3D
fgJugqyligZ9NF24J5mH2eRBGN1nS4nM7KgF/BG5yubF9KmUt3gB86hdRk2q+YpW
N1Z9AGydGGp0s7ILOmnIbpS06AODAEl3VlzEKToNOae7r1nqviUcIGhuT9thaSry
rwazPj7iUYuR0ed2Kuxzfz0W8TvKMgsmyzsNyCByeJXciScdhZ47Ef9ZUBMzQU41
h032zYfAWUvKpRzuT9MZsxQsxMJPj4fpAYN9rg82b39KXWPaY9MW5Pu4GJ6yPxaI
4SBK1AYaSfbEnFHxESm2U52KF8cTNzyM4bWGwMy26QIDAQABo4IBYjCCAV4wCQYD
VR0TBAIwADARBglghkgBhvhCAQEEBAMCBkAwKQYJYIZIAYb4QgENBBwWGk9wZW5T
U0wgU2VydmVyIENlcnRpZmljYXRlMB0GA1UdDgQWBBStW1F3d4hENWjoSHwN/qF8
8UA86DCB0QYDVR0jBIHJMIHGgBRwqJfhOoPWQWkUst/7Qna/QoFsFqGBl6SBlDCB
kTELMAkGA1UEBhMCVFIxEDAOBgNVBAgMB0FudGFseWExDjAMBgNVBAcMBVNlcmlr
MRIwEAYDVQQKDAlDb21peFdhbGwxEDAOBgNVBAsMB09wZW5WUE4xFjAUBgNVBAMM
DWNvbWl4d2FsbC5vcmcxIjAgBgkqhkiG9w0BCQEWE3NvbmVydGFyaUBnbWFpbC5j
b22CFDg5DNrLyHUeUWLe1wKB5Gr6ICv6MBMGA1UdJQQMMAoGCCsGAQUFBwMBMAsG
A1UdDwQEAwIFoDANBgkqhkiG9w0BAQsFAAOCAQEAHg0u3e2IOheEmpFlWSSSfT7T
NkQe0sDqQieU5wGGjm4nYNOD0uEBNXDYZFFksb6tWasaOf6owf+/s4KBARFTm6tp
DlngQJ/vMl/mDbUtvPOodyR1ZlNQt6/kVehfiCvv611LzTeVueNeDwIUTOzO0YBx
Kesg20r1blVXvCwmh/U54z3VT4KvLTg5OP8tbMfDjWMeMS2ecnZmHio/vYbaEVjc
EYwrEcCPwJ9u+o9hX3qsZKH+0f8ObBsrRMWNRB3MEzIzSzGWNXFgZz06P67isEUV
JVJIEq5t5Bunay9m3hxOoDzqYzkr2tHHIGQA1VhtItfUmqXDBIxrj5KYhWs/5w==
-----END CERTIFICATE-----
