Certificate:
    Data:
        Version: 3 (0x2)
        Serial Number: 1 (0x1)
        Signature Algorithm: sha256WithRSAEncryption
        Issuer: C=TR, ST=Antalya, L=Serik, O=ComixWall, OU=OpenVPN, CN=comixwall.org/emailAddress=sonertari@gmail.com
        Validity
            Not Before: Dec  1 11:11:44 2019 GMT
            Not After : Nov 30 11:11:44 2020 GMT
        Subject: C=TR, ST=Antalya, L=Serik, O=ComixWall, OU=OpenVPN Server, CN=comixwall.org/emailAddress=sonertari@gmail.com
        Subject Public Key Info:
            Public Key Algorithm: rsaEncryption
                RSA Public-Key: (2048 bit)
                Modulus:
                    00:a8:8d:81:25:1b:2b:fe:49:b8:76:8b:cb:d2:7c:
                    a8:da:f6:1d:a7:6f:5e:10:d0:5a:fb:c8:65:30:bf:
                    d5:38:59:c6:f5:54:07:cb:f1:6a:b3:6b:c8:02:fe:
                    6c:a7:0f:66:f5:05:9b:78:ce:87:3d:ed:da:71:f1:
                    43:9e:bb:a1:61:3d:ac:37:64:e5:6a:49:8e:5e:39:
                    8c:15:f8:e6:7b:42:c7:23:64:5a:8b:bb:2c:1b:a7:
                    75:b6:d6:6c:87:b5:bc:db:41:39:95:1e:15:55:f9:
                    85:8d:ae:34:41:55:e1:62:bc:4d:a4:5b:50:8a:7e:
                    c6:98:a6:1b:35:04:74:70:46:77:76:20:d1:d8:c9:
                    a4:26:92:6e:8c:28:83:f0:bf:15:8c:49:e8:ab:cc:
                    e8:7e:d3:77:23:18:97:f2:dc:87:c8:59:fc:45:27:
                    fe:06:84:24:a3:70:d1:74:34:1a:b5:8c:47:79:96:
                    a6:a0:6a:9d:11:8e:52:77:33:b9:9e:8c:d4:aa:23:
                    4f:92:5e:a2:08:73:2f:38:f5:54:ea:4e:6a:aa:bb:
                    8c:d2:11:25:b5:83:a8:76:54:ba:c4:e2:ca:f5:87:
                    a7:8e:d2:76:e2:a4:fa:b9:37:b7:55:52:7b:a5:8f:
                    9d:c4:ce:98:21:57:d6:d5:db:8b:2a:a3:65:77:69:
                    5f:ed
                Exponent: 65537 (0x10001)
        X509v3 extensions:
            X509v3 Basic Constraints: 
                CA:FALSE
            Netscape Cert Type: 
                SSL Server
            Netscape Comment: 
                OpenSSL Server Certificate
            X509v3 Subject Key Identifier: 
                91:B6:79:2E:C2:42:61:6B:F2:91:43:6D:16:BC:55:A4:B3:C9:96:49
            X509v3 Authority Key Identifier: 
                keyid:5E:9B:18:10:29:1D:3A:90:F3:55:48:C1:D7:D6:DA:77:FE:D6:26:E1
                DirName:/C=TR/ST=Antalya/L=Serik/O=ComixWall/OU=OpenVPN/CN=comixwall.org/emailAddress=sonertari@gmail.com
                serial:0E:11:1A:37:76:48:C5:9A:D0:DF:47:6E:02:A1:99:E8:24:FA:88:1A

            X509v3 Extended Key Usage: 
                TLS Web Server Authentication
            X509v3 Key Usage: 
                Digital Signature, Key Encipherment
    Signature Algorithm: sha256WithRSAEncryption
         39:4c:8f:1b:6e:d9:47:02:19:47:1c:2e:5e:92:d0:fa:e9:a9:
         9a:51:94:86:5d:7c:8a:34:53:f3:55:d3:7f:91:ec:b6:e8:bf:
         ce:94:60:74:8c:15:1d:51:16:7e:f6:d7:ca:60:28:30:63:f8:
         de:a9:73:ee:a0:25:14:e6:b0:4d:44:71:66:03:47:cd:11:62:
         14:4c:f3:92:b8:45:ad:1b:ca:2e:62:94:92:b8:f0:b6:45:0e:
         ea:47:5b:4b:ca:91:05:37:a5:45:bd:2c:32:16:cc:64:ca:49:
         24:b5:eb:36:b9:22:d7:d7:71:3e:eb:18:09:3c:51:a0:0a:44:
         2e:92:94:16:9c:3d:2d:6f:8d:08:c4:85:17:fe:db:cc:71:8e:
         fe:2c:b9:4f:77:f8:ad:8c:c3:00:b4:62:82:da:b6:9a:8f:47:
         ff:0a:12:d3:d4:01:08:ef:ed:c1:b4:25:d4:d4:7e:eb:11:ad:
         bc:b3:1c:d9:e9:62:9e:b6:5c:2a:02:5d:19:e9:92:f8:14:f0:
         23:e0:db:51:0e:e2:6e:3e:ca:cc:0a:82:4c:58:6a:6f:70:07:
         19:06:28:3c:a1:83:11:ae:63:87:89:35:d6:65:e1:f8:f5:39:
         17:97:dd:fd:f7:ca:91:a8:9a:22:d2:ab:4a:90:bb:9d:24:aa:
         4e:8b:9a:29
-----BEGIN CERTIFICATE-----
MIIFCjCCA/KgAwIBAgIBATANBgkqhkiG9w0BAQsFADCBkTELMAkGA1UEBhMCVFIx
EDAOBgNVBAgMB0FudGFseWExDjAMBgNVBAcMBVNlcmlrMRIwEAYDVQQKDAlDb21p
eFdhbGwxEDAOBgNVBAsMB09wZW5WUE4xFjAUBgNVBAMMDWNvbWl4d2FsbC5vcmcx
IjAgBgkqhkiG9w0BCQEWE3NvbmVydGFyaUBnbWFpbC5jb20wHhcNMTkxMjAxMTEx
MTQ0WhcNMjAxMTMwMTExMTQ0WjCBmDELMAkGA1UEBhMCVFIxEDAOBgNVBAgMB0Fu
dGFseWExDjAMBgNVBAcMBVNlcmlrMRIwEAYDVQQKDAlDb21peFdhbGwxFzAVBgNV
BAsMDk9wZW5WUE4gU2VydmVyMRYwFAYDVQQDDA1jb21peHdhbGwub3JnMSIwIAYJ
KoZIhvcNAQkBFhNzb25lcnRhcmlAZ21haWwuY29tMIIBIjANBgkqhkiG9w0BAQEF
AAOCAQ8AMIIBCgKCAQEAqI2BJRsr/km4dovL0nyo2vYdp29eENBa+8hlML/VOFnG
9VQHy/Fqs2vIAv5spw9m9QWbeM6HPe3acfFDnruhYT2sN2TlakmOXjmMFfjme0LH
I2Rai7ssG6d1ttZsh7W820E5lR4VVfmFja40QVXhYrxNpFtQin7GmKYbNQR0cEZ3
diDR2MmkJpJujCiD8L8VjEnoq8zoftN3IxiX8tyHyFn8RSf+BoQko3DRdDQatYxH
eZamoGqdEY5SdzO5nozUqiNPkl6iCHMvOPVU6k5qqruM0hEltYOodlS6xOLK9Yen
jtJ24qT6uTe3VVJ7pY+dxM6YIVfW1duLKqNld2lf7QIDAQABo4IBYjCCAV4wCQYD
VR0TBAIwADARBglghkgBhvhCAQEEBAMCBkAwKQYJYIZIAYb4QgENBBwWGk9wZW5T
U0wgU2VydmVyIENlcnRpZmljYXRlMB0GA1UdDgQWBBSRtnkuwkJha/KRQ20WvFWk
s8mWSTCB0QYDVR0jBIHJMIHGgBRemxgQKR06kPNVSMHX1tp3/tYm4aGBl6SBlDCB
kTELMAkGA1UEBhMCVFIxEDAOBgNVBAgMB0FudGFseWExDjAMBgNVBAcMBVNlcmlr
MRIwEAYDVQQKDAlDb21peFdhbGwxEDAOBgNVBAsMB09wZW5WUE4xFjAUBgNVBAMM
DWNvbWl4d2FsbC5vcmcxIjAgBgkqhkiG9w0BCQEWE3NvbmVydGFyaUBnbWFpbC5j
b22CFA4RGjd2SMWa0N9HbgKhmegk+ogaMBMGA1UdJQQMMAoGCCsGAQUFBwMBMAsG
A1UdDwQEAwIFoDANBgkqhkiG9w0BAQsFAAOCAQEAOUyPG27ZRwIZRxwuXpLQ+ump
mlGUhl18ijRT81XTf5Hstui/zpRgdIwVHVEWfvbXymAoMGP43qlz7qAlFOawTURx
ZgNHzRFiFEzzkrhFrRvKLmKUkrjwtkUO6kdbS8qRBTelRb0sMhbMZMpJJLXrNrki
19dxPusYCTxRoApELpKUFpw9LW+NCMSFF/7bzHGO/iy5T3f4rYzDALRigtq2mo9H
/woS09QBCO/twbQl1NR+6xGtvLMc2elinrZcKgJdGemS+BTwI+DbUQ7ibj7KzAqC
TFhqb3AHGQYoPKGDEa5jh4k11mXh+PU5F5fd/ffKkaiaItKrSpC7nSSqTouaKQ==
-----END CERTIFICATE-----
