Certificate:
    Data:
        Version: 3 (0x2)
        Serial Number: 1 (0x1)
    Signature Algorithm: sha256WithRSAEncryption
        Issuer: C=TR, ST=Antalya, L=Serik, O=ComixWall, OU=OpenVPN, CN=comixwall.org/emailAddress=sonertari@gmail.com
        Validity
            Not Before: Apr 27 12:29:11 2019 GMT
            Not After : Apr 26 12:29:11 2020 GMT
        Subject: C=TR, ST=Antalya, L=Serik, O=ComixWall, OU=OpenVPN Server, CN=comixwall.org/emailAddress=sonertari@gmail.com
        Subject Public Key Info:
            Public Key Algorithm: rsaEncryption
                Public-Key: (2048 bit)
                Modulus:
                    00:bf:08:0b:8b:57:91:d0:ce:44:32:22:fe:ec:ff:
                    6d:3d:f9:a3:fa:2c:e5:02:e2:7f:49:81:44:69:cd:
                    8e:b9:b6:72:22:3d:b6:97:76:74:86:92:8d:3e:8c:
                    69:c3:b2:9e:02:d3:df:de:de:3f:e5:7e:2c:48:63:
                    e4:f2:59:00:2a:a1:53:b6:4b:19:91:5e:ee:ae:3b:
                    d0:70:27:ab:dd:ee:b6:57:41:76:ba:61:c7:e0:2b:
                    09:53:8d:e0:9d:30:2e:9c:98:34:3b:1e:2b:95:38:
                    ee:91:63:0f:90:ef:73:ea:74:46:7f:a9:42:dd:df:
                    46:6f:45:20:fd:08:93:2e:71:2d:a1:6a:e9:8d:96:
                    58:9d:2a:db:69:b3:d3:27:4a:67:d8:e3:25:14:06:
                    05:0c:39:17:8b:96:e2:ff:1a:6c:bb:94:ce:3e:dd:
                    99:03:ad:4b:90:45:2f:f7:bc:99:b2:30:22:5f:84:
                    fe:83:2b:12:81:03:1d:87:9e:e8:4c:32:cc:54:19:
                    48:ba:54:b8:55:67:ae:7c:c6:c6:a4:5d:eb:8f:c8:
                    d6:bd:8b:5b:47:b5:30:a1:d6:f2:33:3b:49:79:3f:
                    1b:31:e5:76:45:c0:7e:07:10:57:c0:d1:a3:6b:bb:
                    f8:d8:0b:6a:b6:84:f9:d6:1a:71:68:45:ed:7b:6e:
                    c0:b1
                Exponent: 65537 (0x10001)
        X509v3 extensions:
            X509v3 Basic Constraints: 
                CA:FALSE
            Netscape Cert Type: 
                SSL Server
            Netscape Comment: 
                OpenSSL Server Certificate
            X509v3 Subject Key Identifier: 
                EB:29:F0:A3:91:79:3B:A2:07:7E:3F:CA:F5:03:B2:2D:16:97:98:D3
            X509v3 Authority Key Identifier: 
                keyid:06:58:9A:DB:F9:51:99:EA:2A:0F:B4:8F:31:45:8F:6F:AD:57:75:40
                DirName:/C=TR/ST=Antalya/L=Serik/O=ComixWall/OU=OpenVPN/CN=comixwall.org/emailAddress=sonertari@gmail.com
                serial:B6:14:C3:6A:A5:B4:7A:0D

            X509v3 Extended Key Usage: 
                TLS Web Server Authentication
            X509v3 Key Usage: 
                Digital Signature, Key Encipherment
    Signature Algorithm: sha256WithRSAEncryption
         65:ea:d3:e9:83:dd:54:ce:76:5a:38:ba:0e:cb:cf:07:c5:9e:
         ae:c6:c5:f0:ad:96:1a:38:56:51:2d:d2:b5:09:e6:3c:b2:d3:
         dc:5e:a6:d1:78:cd:e9:9d:24:ff:3d:72:51:44:fd:39:cd:be:
         05:30:8a:47:31:40:e8:f6:f1:f4:36:74:ce:6d:6d:f6:2f:6a:
         a5:8d:d7:77:e1:78:53:72:66:bc:ea:20:f1:c5:73:2c:e5:5a:
         1b:1f:ea:8f:dd:1d:fc:9c:5a:89:f8:c8:4f:9e:6d:44:3d:72:
         22:1e:2e:e3:9f:75:39:8a:dd:67:41:06:38:32:bd:fe:b3:7b:
         ad:c7:25:c4:cb:8e:f3:e6:af:6d:f8:de:e2:3c:ee:3b:5d:81:
         c7:f8:9b:fe:f5:0d:c0:d5:5c:57:06:d4:1c:7d:c3:e3:14:99:
         8e:a5:77:66:96:b8:82:99:6e:41:80:aa:83:21:fc:cb:4b:51:
         7b:35:90:48:03:b1:75:88:99:37:79:ba:63:3c:c0:b0:0d:a4:
         46:ff:f8:5b:fe:92:30:d2:a2:c7:cc:f3:c9:4c:0d:83:e2:23:
         49:f3:a1:5b:ee:09:a5:0f:13:31:7b:52:3d:ef:f3:3e:54:de:
         f7:cc:e2:69:12:5f:82:36:50:31:67:d7:6f:51:92:b2:f3:72:
         aa:b6:7a:56
-----BEGIN CERTIFICATE-----
MIIE/zCCA+egAwIBAgIBATANBgkqhkiG9w0BAQsFADCBkTELMAkGA1UEBhMCVFIx
EDAOBgNVBAgMB0FudGFseWExDjAMBgNVBAcMBVNlcmlrMRIwEAYDVQQKDAlDb21p
eFdhbGwxEDAOBgNVBAsMB09wZW5WUE4xFjAUBgNVBAMMDWNvbWl4d2FsbC5vcmcx
IjAgBgkqhkiG9w0BCQEWE3NvbmVydGFyaUBnbWFpbC5jb20wHhcNMTkwNDI3MTIy
OTExWhcNMjAwNDI2MTIyOTExWjCBmDELMAkGA1UEBhMCVFIxEDAOBgNVBAgMB0Fu
dGFseWExDjAMBgNVBAcMBVNlcmlrMRIwEAYDVQQKDAlDb21peFdhbGwxFzAVBgNV
BAsMDk9wZW5WUE4gU2VydmVyMRYwFAYDVQQDDA1jb21peHdhbGwub3JnMSIwIAYJ
KoZIhvcNAQkBFhNzb25lcnRhcmlAZ21haWwuY29tMIIBIjANBgkqhkiG9w0BAQEF
AAOCAQ8AMIIBCgKCAQEAvwgLi1eR0M5EMiL+7P9tPfmj+izlAuJ/SYFEac2OubZy
Ij22l3Z0hpKNPoxpw7KeAtPf3t4/5X4sSGPk8lkAKqFTtksZkV7urjvQcCer3e62
V0F2umHH4CsJU43gnTAunJg0Ox4rlTjukWMPkO9z6nRGf6lC3d9Gb0Ug/QiTLnEt
oWrpjZZYnSrbabPTJ0pn2OMlFAYFDDkXi5bi/xpsu5TOPt2ZA61LkEUv97yZsjAi
X4T+gysSgQMdh57oTDLMVBlIulS4VWeufMbGpF3rj8jWvYtbR7UwodbyMztJeT8b
MeV2RcB+BxBXwNGja7v42AtqtoT51hpxaEXte27AsQIDAQABo4IBVzCCAVMwCQYD
VR0TBAIwADARBglghkgBhvhCAQEEBAMCBkAwKQYJYIZIAYb4QgENBBwWGk9wZW5T
U0wgU2VydmVyIENlcnRpZmljYXRlMB0GA1UdDgQWBBTrKfCjkXk7ogd+P8r1A7It
FpeY0zCBxgYDVR0jBIG+MIG7gBQGWJrb+VGZ6ioPtI8xRY9vrVd1QKGBl6SBlDCB
kTELMAkGA1UEBhMCVFIxEDAOBgNVBAgMB0FudGFseWExDjAMBgNVBAcMBVNlcmlr
MRIwEAYDVQQKDAlDb21peFdhbGwxEDAOBgNVBAsMB09wZW5WUE4xFjAUBgNVBAMM
DWNvbWl4d2FsbC5vcmcxIjAgBgkqhkiG9w0BCQEWE3NvbmVydGFyaUBnbWFpbC5j
b22CCQC2FMNqpbR6DTATBgNVHSUEDDAKBggrBgEFBQcDATALBgNVHQ8EBAMCBaAw
DQYJKoZIhvcNAQELBQADggEBAGXq0+mD3VTOdlo4ug7LzwfFnq7GxfCtlho4VlEt
0rUJ5jyy09xeptF4zemdJP89clFE/TnNvgUwikcxQOj28fQ2dM5tbfYvaqWN13fh
eFNyZrzqIPHFcyzlWhsf6o/dHfycWon4yE+ebUQ9ciIeLuOfdTmK3WdBBjgyvf6z
e63HJcTLjvPmr2343uI87jtdgcf4m/71DcDVXFcG1Bx9w+MUmY6ld2aWuIKZbkGA
qoMh/MtLUXs1kEgDsXWImTd5umM8wLANpEb/+Fv+kjDSosfM88lMDYPiI0nzoVvu
CaUPEzF7Uj3v8z5U3vfM4mkSX4I2UDFn129RkrLzcqq2elY=
-----END CERTIFICATE-----
